target datalayout = "e-m:e-p270:32:32-p271:32:32-p272:64:64-i64:64-i128:128-f80:128-n8:16:32:64-S128"
target triple = "x86_64-pc-linux-gnu"

%struct.AVRational = type { i32, i32 }
%struct.AVCodecContext = type { ptr, i32, i32, ptr, i32, i32, ptr, ptr, ptr, i64, i32, i32, ptr, i32, %struct.AVRational, %struct.AVRational, %struct.AVRational, i32, i32, i32, i32, i32, %struct.AVRational, i32, i32, i32, i32, i32, i32, i32, i32, i32, i32, i32, ptr, ptr, i32, float, float, float, float, float, float, float, float, float, i32, i32, i32, i32, i32, i32, i32, i32, i32, i32, i32, i32, ptr, ptr, ptr, i32, i32, i32, i32, i32, i32, i32, i32, i32, i32, %struct.AVChannelLayout, i32, i32, i32, i32, i32, i32, i32, i32, ptr, i32, i32, i32, float, float, i32, i32, i32, i32, i32, ptr, i64, i64, float, float, i32, i32, ptr, ptr, i32, i32, i32, i32, i32, ptr, ptr, ptr, ptr, i32, i32, [8 x i64], i32, i32, i32, i32, i32, i32, i32, ptr, ptr, i32, i32, i32, i32, i32, i32, i32, i32, i32, i32, ptr, ptr, i32, i32, ptr, ptr, ptr, ptr, i32, i32, i64, i32, i32, i64, ptr, i64, ptr, i32, ptr, i32 }
%struct.AVChannelLayout = type { i32, i32, %union.anon.1, ptr }
%union.anon.1 = type { i64 }
%struct.VC2EncContext = type { ptr, %struct.PutBitContext, [3 x %struct.Plane], ptr, %struct.DiracVersionInfo, ptr, [3 x %struct.TransformArgs], i32, i32, i32, i32, i32, i32, i32, [5 x [4 x i8]], i32, [116 x [2 x i32]], i32, i32, i32, i32, i32, i32, i32, i32, i32, i32, i32, double, i32, i32, i32, i32, i32, i32, i32, i32, i32 }
%struct.PutBitContext = type { i32, i32, ptr, ptr, ptr }
%struct.Plane = type { [5 x [4 x %struct.SubBand]], ptr, i32, i32, i32, i32, i64 }
%struct.SubBand = type { ptr, i64, i32, i32 }
%struct.DiracVersionInfo = type { i32, i32 }
%struct.TransformArgs = type { ptr, ptr, ptr, i64, i32, %struct.VC2TransformContext }
%struct.VC2TransformContext = type { ptr, i32, [7 x ptr] }

@.str.50 = private unnamed_addr constant [10 x i8] c"Qavg: %i\0A\00", align 1

; Function Attrs: cold nounwind optsize uwtable
define internal i32 @vc2_encode_end(ptr noundef %0) #0 {
  %2 = alloca ptr, align 8
  %3 = alloca i32, align 4
  %4 = alloca ptr, align 8
  store ptr %0, ptr %2, align 8, !tbaa !4
  call void @llvm.lifetime.start.p0(i64 4, ptr %3) #13
  call void @llvm.lifetime.start.p0(i64 8, ptr %4) #13
  %5 = load ptr, ptr %2, align 8, !tbaa !4
  %6 = getelementptr inbounds nuw %struct.AVCodecContext, ptr %5, i32 0, i32 6
  %7 = load ptr, ptr %6, align 8, !tbaa !9
  store ptr %7, ptr %4, align 8, !tbaa !29
  %8 = load ptr, ptr %2, align 8, !tbaa !4
  %9 = load ptr, ptr %4, align 8, !tbaa !29
  %10 = getelementptr inbounds nuw %struct.VC2EncContext, ptr %9, i32 0, i32 27
  %11 = load i32, ptr %10, align 4, !tbaa !44
  call void (ptr, i32, ptr, ...) @av_log(ptr noundef %8, i32 noundef 32, ptr noundef @.str.50, i32 noundef %11)
  store i32 0, ptr %3, align 4, !tbaa !49
  br label %12

12:                                               ; preds = %28, %1
  %13 = load i32, ptr %3, align 4, !tbaa !49
  %14 = icmp slt i32 %13, 3
  br i1 %14, label %15, label %31

15:                                               ; preds = %12
  %16 = load ptr, ptr %4, align 8, !tbaa !29
  %17 = getelementptr inbounds nuw %struct.VC2EncContext, ptr %16, i32 0, i32 6
  %18 = load i32, ptr %3, align 4, !tbaa !49
  %19 = sext i32 %18 to i64
  %20 = getelementptr inbounds [3 x %struct.TransformArgs], ptr %17, i64 0, i64 %19
  %21 = getelementptr inbounds nuw %struct.TransformArgs, ptr %20, i32 0, i32 5
  call void @ff_vc2enc_free_transforms(ptr noundef %21)
  %22 = load ptr, ptr %4, align 8, !tbaa !29
  %23 = getelementptr inbounds nuw %struct.VC2EncContext, ptr %22, i32 0, i32 2
  %24 = load i32, ptr %3, align 4, !tbaa !49
  %25 = sext i32 %24 to i64
  %26 = getelementptr inbounds [3 x %struct.Plane], ptr %23, i64 0, i64 %25
  %27 = getelementptr inbounds nuw %struct.Plane, ptr %26, i32 0, i32 1
  call void @av_freep(ptr noundef %27)
  br label %28

28:                                               ; preds = %15
  %29 = load i32, ptr %3, align 4, !tbaa !49
  %30 = add nsw i32 %29, 1
  store i32 %30, ptr %3, align 4, !tbaa !49
  br label %12, !llvm.loop !124

31:                                               ; preds = %12
  %32 = load ptr, ptr %4, align 8, !tbaa !29
  %33 = getelementptr inbounds nuw %struct.VC2EncContext, ptr %32, i32 0, i32 5
  call void @av_freep(ptr noundef %33)
  call void @llvm.lifetime.end.p0(i64 8, ptr %4) #13
  call void @llvm.lifetime.end.p0(i64 4, ptr %3) #13
  ret i32 0
}