; Function Attrs: cold nounwind optsize uwtable
define internal noundef i32 @vc2_encode_end(ptr noundef %0) #0 {
  %2 = getelementptr inbounds nuw i8, ptr %0, i64 32
  %3 = load ptr, ptr %2, align 8, !tbaa !4
  %4 = getelementptr inbounds nuw i8, ptr %3, i64 2956
  %5 = load i32, ptr %4, align 4, !tbaa !41
  tail call void (ptr, i32, ptr, ...) @av_log(ptr noundef %0, i32 noundef 32, ptr noundef nonnull @.str.50, i32 noundef %5) #13
  %6 = getelementptr i8, ptr %3, i64 1640
  %7 = getelementptr i8, ptr %3, i64 520
  br label %8

8:                                                ; preds = %1, %8
  %indvars.iv = phi i64 [ 0, %1 ], [ %indvars.iv.next, %8 ]
  %.idx = mul nuw nsw i64 %indvars.iv, 112
  %9 = getelementptr i8, ptr %6, i64 %.idx
  tail call void @ff_vc2enc_free_transforms(ptr noundef %9) #13
  %.idx9 = shl nuw nsw i64 %indvars.iv, 9
  %10 = getelementptr i8, ptr %7, i64 %.idx9
  tail call void @av_freep(ptr noundef %10) #13
  %indvars.iv.next = add nuw nsw i64 %indvars.iv, 1
  %exitcond.not = icmp eq i64 %indvars.iv.next, 3
  br i1 %exitcond.not, label %11, label %8, !llvm.loop !113

11:                                               ; preds = %8
  %12 = getelementptr inbounds nuw i8, ptr %3, i64 1592
  tail call void @av_freep(ptr noundef nonnull %12) #13
  ret i32 0
}